; Function Attrs: nounwind uwtable
define range(i32 -1, 1) i32 @H5Tset_ebias(i64 noundef %0, i64 noundef %1) local_unnamed_addr #0 {
  %3 = alloca %struct.H5CX_node_t, align 8
  call void @llvm.lifetime.start.p0(i64 480, ptr nonnull %3) #4
  call void @llvm.memset.p0.i64(ptr noundef nonnull align 8 dereferenceable(480) %3, i8 0, i64 480, i1 false)
  %4 = load i8, ptr @H5_libinit_g, align 1, !tbaa !3, !range !7, !noundef !8
  %5 = trunc nuw i8 %4 to i1
  %6 = load i8, ptr @H5_libterm_g, align 1, !range !7
  %7 = trunc nuw i8 %6 to i1
  %8 = select i1 %5, i1 true, i1 %7
  br i1 %8, label %16, label %9, !prof !9

9:                                                ; preds = %2
  %10 = tail call i32 @H5_init_library() #4
  %11 = icmp slt i32 %10, 0
  br i1 %11, label %12, label %._crit_edge, !prof !10

._crit_edge:                                      ; preds = %9
  %.pre = load i8, ptr @H5_libterm_g, align 1, !range !7
  br label %16

12:                                               ; preds = %9
  %13 = load i64, ptr @H5E_FUNC_g, align 8, !tbaa !11
  %14 = load i64, ptr @H5E_CANTINIT_g, align 8, !tbaa !11
  %15 = tail call i32 (ptr, ptr, i32, i64, i64, ptr, ...) @H5E_printf_stack(ptr noundef nonnull @.str, ptr noundef nonnull @__func__.H5Tset_ebias, i32 noundef 182, i64 noundef %13, i64 noundef %14, ptr noundef nonnull @.str.1) #4
  br label %.thread30

16:                                               ; preds = %._crit_edge, %2
  %17 = phi i8 [ %.pre, %._crit_edge ], [ %6, %2 ]
  %18 = load i8, ptr @H5T_init_g, align 1, !tbaa !3, !range !7, !noundef !8
  %19 = trunc nuw i8 %18 to i1
  %20 = trunc nuw i8 %17 to i1
  %21 = select i1 %19, i1 true, i1 %20
  br i1 %21, label %29, label %22, !prof !9

22:                                               ; preds = %16
  store i8 1, ptr @H5T_init_g, align 1, !tbaa !3
  %23 = tail call i32 @H5T__init_package() #4
  %24 = icmp slt i32 %23, 0
  br i1 %24, label %25, label %29, !prof !13

25:                                               ; preds = %22
  store i8 0, ptr @H5T_init_g, align 1, !tbaa !3
  %26 = load i64, ptr @H5E_FUNC_g, align 8, !tbaa !11
  %27 = load i64, ptr @H5E_CANTINIT_g, align 8, !tbaa !11
  %28 = tail call i32 (ptr, ptr, i32, i64, i64, ptr, ...) @H5E_printf_stack(ptr noundef nonnull @.str, ptr noundef nonnull @__func__.H5Tset_ebias, i32 noundef 182, i64 noundef %26, i64 noundef %27, ptr noundef nonnull @.str.2) #4
  br label %.thread30

29:                                               ; preds = %16, %22
  %30 = call i32 @H5CX_push(ptr noundef nonnull %3) #4
  %31 = icmp slt i32 %30, 0
  br i1 %31, label %32, label %36, !prof !10

32:                                               ; preds = %29
  %33 = load i64, ptr @H5E_FUNC_g, align 8, !tbaa !11
  %34 = load i64, ptr @H5E_CANTSET_g, align 8, !tbaa !11
  %35 = call i32 (ptr, ptr, i32, i64, i64, ptr, ...) @H5E_printf_stack(ptr noundef nonnull @.str, ptr noundef nonnull @__func__.H5Tset_ebias, i32 noundef 182, i64 noundef %33, i64 noundef %34, ptr noundef nonnull @.str.3) #4
  br label %.thread30

36:                                               ; preds = %29
  %37 = call i32 @H5E_clear_stack() #4
  %38 = call ptr @H5I_object_verify(i64 noundef %0, i32 noundef 3) #4
  %39 = icmp eq ptr %38, null
  br i1 %39, label %40, label %44, !prof !14

40:                                               ; preds = %36
  %41 = load i64, ptr @H5E_ARGS_g, align 8, !tbaa !11
  %42 = load i64, ptr @H5E_BADTYPE_g, align 8, !tbaa !11
  %43 = call i32 (ptr, ptr, i32, i64, i64, ptr, ...) @H5E_printf_stack(ptr noundef nonnull @.str, ptr noundef nonnull @__func__.H5Tset_ebias, i32 noundef 186, i64 noundef %41, i64 noundef %42, ptr noundef nonnull @.str.4) #4
  br label %.thread36

44:                                               ; preds = %36
  %45 = getelementptr inbounds nuw i8, ptr %38, i64 40
  %46 = load ptr, ptr %45, align 8, !tbaa !15
  %47 = getelementptr inbounds nuw i8, ptr %46, i64 8
  %48 = load i32, ptr %47, align 8, !tbaa !34
  %.not = icmp eq i32 %48, 0
  br i1 %.not, label %.preheader, label %49, !prof !32

49:                                               ; preds = %44
  %50 = load i64, ptr @H5E_ARGS_g, align 8, !tbaa !11
  %51 = load i64, ptr @H5E_CANTSET_g, align 8, !tbaa !11
  %52 = call i32 (ptr, ptr, i32, i64, i64, ptr, ...) @H5E_printf_stack(ptr noundef nonnull @.str, ptr noundef nonnull @__func__.H5Tset_ebias, i32 noundef 188, i64 noundef %50, i64 noundef %51, ptr noundef nonnull @.str.6) #4
  br label %.thread36

.preheader:                                       ; preds = %44, %.preheader
  %.017 = phi ptr [ %56, %.preheader ], [ %38, %44 ]
  %53 = getelementptr inbounds nuw i8, ptr %.017, i64 40
  %54 = load ptr, ptr %53, align 8, !tbaa !15
  %55 = getelementptr inbounds nuw i8, ptr %54, i64 32
  %56 = load ptr, ptr %55, align 8, !tbaa !26
  %.not20 = icmp eq ptr %56, null
  br i1 %.not20, label %57, label %.preheader, !llvm.loop !37

57:                                               ; preds = %.preheader
  %58 = getelementptr inbounds nuw i8, ptr %54, i64 12
  %59 = load i32, ptr %58, align 4, !tbaa !31
  %.not21 = icmp eq i32 %59, 1
  br i1 %.not21, label %65, label %60, !prof !32

60:                                               ; preds = %57
  %61 = load i64, ptr @H5E_DATATYPE_g, align 8, !tbaa !11
  %62 = load i64, ptr @H5E_BADTYPE_g, align 8, !tbaa !11
  %63 = call i32 (ptr, ptr, i32, i64, i64, ptr, ...) @H5E_printf_stack(ptr noundef nonnull @.str, ptr noundef nonnull @__func__.H5Tset_ebias, i32 noundef 192, i64 noundef %61, i64 noundef %62, ptr noundef nonnull @.str.5) #4
  br label %.thread36

.thread36:                                        ; preds = %60, %49, %40
  %64 = call i32 @H5CX_pop(i1 noundef zeroext true) #4
  br label %.thread30

65:                                               ; preds = %57
  %66 = getelementptr inbounds nuw i8, ptr %54, i64 104
  store i64 %1, ptr %66, align 8, !tbaa !33
  %67 = call i32 @H5CX_pop(i1 noundef zeroext true) #4
  br label %69

.thread30:                                        ; preds = %32, %25, %12, %.thread36
  %68 = call i32 @H5E_dump_api_stack() #4
  br label %69

69:                                               ; preds = %65, %.thread30
  %.0162533 = phi i32 [ -1, %.thread30 ], [ 0, %65 ]
  call void @llvm.lifetime.end.p0(i64 480, ptr nonnull %3) #4
  ret i32 %.0162533
}